target datalayout = "e-m:e-p270:32:32-p271:32:32-p272:64:64-i64:64-i128:128-f80:128-n8:16:32:64-S128"
target triple = "x86_64-unknown-linux-gnu"

%"class.std::__cxx11::basic_string" = type { %"struct.std::__cxx11::basic_string<char>::_Alloc_hider", i64, %union.anon }
%"struct.std::__cxx11::basic_string<char>::_Alloc_hider" = type { ptr }
%union.anon = type { i64, [8 x i8] }
%"class.base::internal::JSONParser::StringBuilder" = type { ptr, i64, ptr }
%"class.logging::CheckOpResult" = type { ptr }
%"class.logging::LogMessage" = type <{ i32, [4 x i8], %"class.std::__cxx11::basic_ostringstream", i64, ptr, i32, [4 x i8] }>
%"class.std::__cxx11::basic_ostringstream" = type { %"class.std::basic_ostream.base", %"class.std::__cxx11::basic_stringbuf", %"class.std::basic_ios" }
%"class.std::basic_ostream.base" = type { ptr }
%"class.std::__cxx11::basic_stringbuf" = type { %"class.std::basic_streambuf", i32, %"class.std::__cxx11::basic_string" }
%"class.std::basic_streambuf" = type { ptr, ptr, ptr, ptr, ptr, ptr, ptr, %"class.std::locale" }
%"class.std::locale" = type { ptr }
%"class.std::basic_ios" = type { %"class.std::ios_base", ptr, i8, i8, ptr, ptr, ptr, ptr }
%"class.std::ios_base" = type { ptr, i64, i64, i32, i32, i32, ptr, %"struct.std::ios_base::_Words", [8 x %"struct.std::ios_base::_Words"], i32, ptr, %"class.std::locale" }
%"struct.std::ios_base::_Words" = type { ptr, i64 }

@.str = private unnamed_addr constant [122 x i8] c"generated/home/dtcxzyw/WorkSpace/Projects/compilers/llvm-opt-benchmark/bench/libquic/libquic/src/base/json/json_parser.cc\00", align 1

; Function Attrs: mustprogress nounwind uwtable
define linkonce_odr dso_local noundef nonnull align 8 dereferenceable(8) ptr @_ZN7logging10LogMessage6streamEv(ptr noundef nonnull align 8 dereferenceable(404) %this) #0 comdat align 2 {
entry:
  %this.addr = alloca ptr, align 8
  store ptr %this, ptr %this.addr, align 8
  %this1 = load ptr, ptr %this.addr, align 8
  %stream_ = getelementptr inbounds %"class.logging::LogMessage", ptr %this1, i32 0, i32 2
  ret ptr %stream_
}

; Function Attrs: mustprogress nounwind uwtable
define linkonce_odr dso_local noundef ptr @_ZN7logging13CheckOpResult7messageB5cxx11Ev(ptr noundef nonnull align 8 dereferenceable(8) %this) #0 comdat align 2 {
entry:
  %this.addr = alloca ptr, align 8
  store ptr %this, ptr %this.addr, align 8
  %this1 = load ptr, ptr %this.addr, align 8
  %message_ = getelementptr inbounds %"class.logging::CheckOpResult", ptr %this1, i32 0, i32 0
  %0 = load ptr, ptr %message_, align 8
  ret ptr %0
}

; Function Attrs: mustprogress nounwind uwtable
define linkonce_odr dso_local noundef zeroext i1 @_ZNK7logging13CheckOpResultcvbEv(ptr noundef nonnull align 8 dereferenceable(8) %this) #0 comdat align 2 {
entry:
  %this.addr = alloca ptr, align 8
  store ptr %this, ptr %this.addr, align 8
  %this1 = load ptr, ptr %this.addr, align 8
  %message_ = getelementptr inbounds %"class.logging::CheckOpResult", ptr %this1, i32 0, i32 0
  %0 = load ptr, ptr %message_, align 8
  %tobool = icmp ne ptr %0, null
  %lnot = xor i1 %tobool, true
  ret i1 %lnot
}

; Function Attrs: mustprogress nounwind uwtable
define linkonce_odr dso_local void @_ZN7logging13CheckOpResultC2EPNSt7__cxx1112basic_stringIcSt11char_traitsIcESaIcEEE(ptr noundef nonnull align 8 dereferenceable(8) %this, ptr noundef %message) unnamed_addr #0 comdat align 2 {
entry:
  %this.addr = alloca ptr, align 8
  %message.addr = alloca ptr, align 8
  store ptr %this, ptr %this.addr, align 8
  store ptr %message, ptr %message.addr, align 8
  %this1 = load ptr, ptr %this.addr, align 8
  %message_ = getelementptr inbounds %"class.logging::CheckOpResult", ptr %this1, i32 0, i32 0
  %0 = load ptr, ptr %message.addr, align 8
  store ptr %0, ptr %message_, align 8
  ret void
}

; Function Attrs: mustprogress uwtable
define dso_local void @_ZN4base8internal10JSONParser13StringBuilder6AppendERKc(ptr noundef nonnull align 8 dereferenceable(24) %this, ptr noundef nonnull align 1 dereferenceable(1) %c) #1 align 2 personality ptr @__gxx_personality_v0 {
entry:
  %this.addr = alloca ptr, align 8
  %c.addr = alloca ptr, align 8
  %true_if_passed = alloca %"class.logging::CheckOpResult", align 8
  %ref.tmp = alloca %"class.logging::LogMessage", align 8
  %exn.slot = alloca ptr, align 8
  %ehselector.slot = alloca i32, align 4
  %true_if_passed4 = alloca %"class.logging::CheckOpResult", align 8
  %ref.tmp8 = alloca %"class.logging::LogMessage", align 8
  store ptr %this, ptr %this.addr, align 8
  store ptr %c, ptr %c.addr, align 8
  %this1 = load ptr, ptr %this.addr, align 8
  call void @_ZN7logging13CheckOpResultC2EPNSt7__cxx1112basic_stringIcSt11char_traitsIcESaIcEEE(ptr noundef nonnull align 8 dereferenceable(8) %true_if_passed, ptr noundef null)
  %call = call noundef zeroext i1 @_ZNK7logging13CheckOpResultcvbEv(ptr noundef nonnull align 8 dereferenceable(8) %true_if_passed)
  br i1 %call, label %if.then, label %if.else

if.then:                                          ; preds = %entry
  br label %if.end

if.else:                                          ; preds = %entry
  %call2 = call noundef ptr @_ZN7logging13CheckOpResult7messageB5cxx11Ev(ptr noundef nonnull align 8 dereferenceable(8) %true_if_passed)
  call void @_ZN7logging10LogMessageC1EPKciiPNSt7__cxx1112basic_stringIcSt11char_traitsIcESaIcEEE(ptr noundef nonnull align 8 dereferenceable(404) %ref.tmp, ptr noundef @.str, i32 noundef 315, i32 noundef 0, ptr noundef %call2)
  %call3 = invoke noundef nonnull align 8 dereferenceable(8) ptr @_ZN7logging10LogMessage6streamEv(ptr noundef nonnull align 8 dereferenceable(404) %ref.tmp)
          to label %invoke.cont unwind label %lpad

invoke.cont:                                      ; preds = %if.else
  call void @_ZN7logging10LogMessageD1Ev(ptr noundef nonnull align 8 dereferenceable(404) %ref.tmp) #11
  br label %if.end

lpad:                                             ; preds = %if.else
  %0 = landingpad { ptr, i32 }
          cleanup
  %1 = extractvalue { ptr, i32 } %0, 0
  store ptr %1, ptr %exn.slot, align 8
  %2 = extractvalue { ptr, i32 } %0, 1
  store i32 %2, ptr %ehselector.slot, align 4
  call void @_ZN7logging10LogMessageD1Ev(ptr noundef nonnull align 8 dereferenceable(404) %ref.tmp) #11
  br label %eh.resume

if.end:                                           ; preds = %invoke.cont, %if.then
  call void @_ZN7logging13CheckOpResultC2EPNSt7__cxx1112basic_stringIcSt11char_traitsIcESaIcEEE(ptr noundef nonnull align 8 dereferenceable(8) %true_if_passed4, ptr noundef null)
  %call5 = call noundef zeroext i1 @_ZNK7logging13CheckOpResultcvbEv(ptr noundef nonnull align 8 dereferenceable(8) %true_if_passed4)
  br i1 %call5, label %if.then6, label %if.else7

if.then6:                                         ; preds = %if.end
  br label %if.end13

if.else7:                                         ; preds = %if.end
  %call9 = call noundef ptr @_ZN7logging13CheckOpResult7messageB5cxx11Ev(ptr noundef nonnull align 8 dereferenceable(8) %true_if_passed4)
  call void @_ZN7logging10LogMessageC1EPKciiPNSt7__cxx1112basic_stringIcSt11char_traitsIcESaIcEEE(ptr noundef nonnull align 8 dereferenceable(404) %ref.tmp8, ptr noundef @.str, i32 noundef 316, i32 noundef 0, ptr noundef %call9)
  %call12 = invoke noundef nonnull align 8 dereferenceable(8) ptr @_ZN7logging10LogMessage6streamEv(ptr noundef nonnull align 8 dereferenceable(404) %ref.tmp8)
          to label %invoke.cont11 unwind label %lpad10

invoke.cont11:                                    ; preds = %if.else7
  call void @_ZN7logging10LogMessageD1Ev(ptr noundef nonnull align 8 dereferenceable(404) %ref.tmp8) #11
  br label %if.end13

lpad10:                                           ; preds = %if.else7
  %3 = landingpad { ptr, i32 }
          cleanup
  %4 = extractvalue { ptr, i32 } %3, 0
  store ptr %4, ptr %exn.slot, align 8
  %5 = extractvalue { ptr, i32 } %3, 1
  store i32 %5, ptr %ehselector.slot, align 4
  call void @_ZN7logging10LogMessageD1Ev(ptr noundef nonnull align 8 dereferenceable(404) %ref.tmp8) #11
  br label %eh.resume

if.end13:                                         ; preds = %invoke.cont11, %if.then6
  %string_ = getelementptr inbounds %"class.base::internal::JSONParser::StringBuilder", ptr %this1, i32 0, i32 2
  %6 = load ptr, ptr %string_, align 8
  %tobool = icmp ne ptr %6, null
  br i1 %tobool, label %if.then14, label %if.else16

if.then14:                                        ; preds = %if.end13
  %string_15 = getelementptr inbounds %"class.base::internal::JSONParser::StringBuilder", ptr %this1, i32 0, i32 2
  %7 = load ptr, ptr %string_15, align 8
  %8 = load ptr, ptr %c.addr, align 8
  %9 = load i8, ptr %8, align 1
  call void @_ZNSt7__cxx1112basic_stringIcSt11char_traitsIcESaIcEE9push_backEc(ptr noundef nonnull align 8 dereferenceable(32) %7, i8 noundef signext %9)
  br label %if.end17

if.else16:                                        ; preds = %if.end13
  %length_ = getelementptr inbounds %"class.base::internal::JSONParser::StringBuilder", ptr %this1, i32 0, i32 1
  %10 = load i64, ptr %length_, align 8
  %inc = add i64 %10, 1
  store i64 %inc, ptr %length_, align 8
  br label %if.end17

if.end17:                                         ; preds = %if.else16, %if.then14
  ret void

eh.resume:                                        ; preds = %lpad10, %lpad
  %exn = load ptr, ptr %exn.slot, align 8
  %sel = load i32, ptr %ehselector.slot, align 4
  %lpad.val = insertvalue { ptr, i32 } poison, ptr %exn, 0
  %lpad.val18 = insertvalue { ptr, i32 } %lpad.val, i32 %sel, 1
  resume { ptr, i32 } %lpad.val18
}