; Function Attrs: mustprogress uwtable
define dso_local void @_ZN4base8internal10JSONParser13StringBuilder6AppendERKc(ptr nocapture noundef nonnull align 8 dereferenceable(24) %this, ptr nocapture noundef nonnull readonly align 1 dereferenceable(1) %c) local_unnamed_addr #2 align 2 personality ptr @__gxx_personality_v0 {
if.end13:
  %string_ = getelementptr inbounds i8, ptr %this, i64 16
  %0 = load ptr, ptr %string_, align 8
  %tobool.not = icmp eq ptr %0, null
  br i1 %tobool.not, label %if.else16, label %if.then14

if.then14:                                        ; preds = %if.end13
  %1 = load i8, ptr %c, align 1
  tail call void @_ZNSt7__cxx1112basic_stringIcSt11char_traitsIcESaIcEE9push_backEc(ptr noundef nonnull align 8 dereferenceable(32) %0, i8 noundef signext %1)
  br label %if.end17

if.else16:                                        ; preds = %if.end13
  %length_ = getelementptr inbounds i8, ptr %this, i64 8
  %2 = load i64, ptr %length_, align 8
  %inc = add i64 %2, 1
  store i64 %inc, ptr %length_, align 8
  br label %if.end17

if.end17:                                         ; preds = %if.else16, %if.then14
  ret void
}